; ModuleID = 'source-C-CXX/44/2827.c'
source_filename = "source-C-CXX/44/2827.c"
target datalayout = "e-m:e-p270:32:32-p271:32:32-p272:64:64-i64:64-f80:128-n8:16:32:64-S128"
target triple = "x86_64-pc-linux-gnu"

@.str = private unnamed_addr constant [6 x i8] c"%s %s\00", align 1
@.str.1 = private unnamed_addr constant [3 x i8] c"%d\00", align 1

; Function Attrs: nofree nounwind sspstrong uwtable
define dso_local void @main() local_unnamed_addr #0 {
  %1 = alloca [50 x i8], align 16
  %2 = alloca [50 x i8], align 16
  %3 = getelementptr inbounds [50 x i8], [50 x i8]* %1, i64 0, i64 0
  call void @llvm.lifetime.start.p0i8(i64 50, i8* nonnull %3) #4
  %4 = getelementptr inbounds [50 x i8], [50 x i8]* %2, i64 0, i64 0
  call void @llvm.lifetime.start.p0i8(i64 50, i8* nonnull %4) #4
  %5 = call i32 (i8*, ...) @__isoc99_scanf(i8* getelementptr inbounds ([6 x i8], [6 x i8]* @.str, i64 0, i64 0), i8* nonnull %3, i8* nonnull %4)
  %6 = call i64 @strlen(i8* noundef nonnull %3) #5
  %7 = trunc i64 %6 to i32
  %8 = call i64 @strlen(i8* noundef nonnull %4) #5
  %9 = trunc i64 %8 to i32
  %10 = add nsw i32 %7, -1
  %11 = icmp sgt i32 %9, 0
  br i1 %11, label %12, label %33

12:                                               ; preds = %0
  %13 = and i64 %8, 4294967295
  br label %14

14:                                               ; preds = %12, %27
  %15 = phi i64 [ 0, %12 ], [ %29, %27 ]
  %16 = phi i32 [ 0, %12 ], [ %28, %27 ]
  %17 = sext i32 %16 to i64
  %18 = getelementptr inbounds [50 x i8], [50 x i8]* %1, i64 0, i64 %17
  %19 = load i8, i8* %18, align 1, !tbaa !5
  %20 = getelementptr inbounds [50 x i8], [50 x i8]* %2, i64 0, i64 %15
  %21 = load i8, i8* %20, align 1, !tbaa !5
  %22 = icmp eq i8 %19, %21
  br i1 %22, label %23, label %27

23:                                               ; preds = %14
  %24 = icmp eq i32 %16, %10
  br i1 %24, label %31, label %25

25:                                               ; preds = %23
  %26 = add nsw i32 %16, 1
  br label %27

27:                                               ; preds = %14, %25
  %28 = phi i32 [ %26, %25 ], [ 0, %14 ]
  %29 = add nuw nsw i64 %15, 1
  %30 = icmp eq i64 %29, %13
  br i1 %30, label %33, label %14, !llvm.loop !8

31:                                               ; preds = %23
  %32 = trunc i64 %15 to i32
  br label %33

33:                                               ; preds = %27, %31, %0
  %34 = phi i32 [ 0, %0 ], [ %32, %31 ], [ %9, %27 ]
  %35 = sub i32 1, %7
  %36 = add i32 %35, %34
  %37 = call i32 (i8*, ...) @printf(i8* nonnull dereferenceable(1) getelementptr inbounds ([3 x i8], [3 x i8]* @.str.1, i64 0, i64 0), i32 %36)
  call void @llvm.lifetime.end.p0i8(i64 50, i8* nonnull %4) #4
  call void @llvm.lifetime.end.p0i8(i64 50, i8* nonnull %3) #4
  ret void
}

; Function Attrs: argmemonly mustprogress nofree nosync nounwind willreturn
declare void @llvm.lifetime.start.p0i8(i64 immarg, i8* nocapture) #1

; Function Attrs: nofree nounwind
declare noundef i32 @__isoc99_scanf(i8* nocapture noundef readonly, ...) local_unnamed_addr #2

; Function Attrs: argmemonly mustprogress nofree nounwind readonly willreturn
declare i64 @strlen(i8* nocapture) local_unnamed_addr #3

; Function Attrs: nofree nounwind
declare noundef i32 @printf(i8* nocapture noundef readonly, ...) local_unnamed_addr #2

; Function Attrs: argmemonly mustprogress nofree nosync nounwind willreturn
declare void @llvm.lifetime.end.p0i8(i64 immarg, i8* nocapture) #1


!llvm.module.flags = !{!0, !1, !2, !3}
!llvm.ident = !{!4}

!0 = !{i32 1, !"wchar_size", i32 4}
!1 = !{i32 7, !"PIC Level", i32 2}
!2 = !{i32 7, !"PIE Level", i32 2}
!3 = !{i32 7, !"uwtable", i32 1}
!4 = !{!"clang version 13.0.0"}
!5 = !{!6, !6, i64 0}
!6 = !{!"omnipotent char", !7, i64 0}
!7 = !{!"Simple C/C++ TBAA"}
!8 = distinct !{!8, !9}
!9 = !{!"llvm.loop.mustprogress"}
